; Function Attrs: nounwind sspstrong uwtable
define internal noundef i64 @none_iter_i(i64 %0, i64 noundef %1, i32 noundef %2, ptr noundef %3, i64 %4) #0 {
  %6 = tail call i64 @rb_yield_values2(i32 noundef %2, ptr noundef %3) #14
  %7 = and i64 %6, -5
  %.not.i = icmp eq i64 %7, 0
  br i1 %.not.i, label %enum_none_func.exit, label %8

8:                                                ; preds = %5
  %9 = inttoptr i64 %1 to ptr
  %10 = getelementptr inbounds nuw i8, ptr %9, i64 16
  store i64 0, ptr %10, align 8, !tbaa !7
  tail call void @rb_iter_break() #15
  unreachable

enum_none_func.exit:                              ; preds = %5
  ret i64 4
}